; Function Attrs: mustprogress nounwind uwtable
define void @_ZN3gmx8Mdrunner21BuilderImplementation8addInputENS_21SimulationInputHandleE(ptr noundef nonnull align 8 dereferenceable(376) %0, ptr noundef %1) local_unnamed_addr #11 align 2 personality ptr @__gxx_personality_v0 {
  %3 = getelementptr inbounds nuw i8, ptr %0, i64 368
  %4 = load ptr, ptr %1, align 8, !tbaa !1212
  store ptr null, ptr %1, align 8, !tbaa !1212
  %5 = load ptr, ptr %3, align 8, !tbaa !1212
  store ptr %4, ptr %3, align 8, !tbaa !1212
  %.not.i.i.i.i.i = icmp eq ptr %5, null
  br i1 %.not.i.i.i.i.i, label %_ZN3gmx21SimulationInputHandleaSEOS0_.exit, label %6

6:                                                ; preds = %2
  invoke void @_ZNK3gmx6detail32SimulationInputHandleImplDeleterclEPNS0_25SimulationInputHandleImplE(ptr noundef nonnull align 8 dereferenceable(8) %3, ptr noundef nonnull %5)
          to label %_ZN3gmx21SimulationInputHandleaSEOS0_.exit unwind label %7

7:                                                ; preds = %6
  %8 = landingpad { ptr, i32 }
          catch ptr null
  %9 = extractvalue { ptr, i32 } %8, 0
  tail call void @__clang_call_terminate(ptr %9) #35
  unreachable

_ZN3gmx21SimulationInputHandleaSEOS0_.exit:       ; preds = %2, %6
  %10 = tail call noundef nonnull align 1 dereferenceable(1) ptr @_ZN3gmx6detail32SimulationInputHandleImplDeleteraSEOS1_(ptr noundef nonnull align 8 dereferenceable(8) %3, ptr noundef nonnull align 8 dereferenceable(8) %1) #34
  ret void
}